target datalayout = "e-m:e-p270:32:32-p271:32:32-p272:64:64-i64:64-i128:128-f80:128-n8:16:32:64-S128"
target triple = "x86_64-pc-linux-gnu"

%struct.darktable_t = type { %struct.dt_codepath_t, i32, i32, ptr, ptr, ptr, ptr, ptr, ptr, ptr, ptr, ptr, ptr, ptr, ptr, ptr, ptr, ptr, ptr, ptr, ptr, ptr, ptr, ptr, ptr, ptr, ptr, ptr, ptr, ptr, [64 x %struct.dt_pthread_mutex_t], %struct.dt_pthread_mutex_t, %struct.dt_pthread_mutex_t, %struct.dt_pthread_mutex_t, %struct.dt_pthread_mutex_t, %struct.dt_pthread_mutex_t, ptr, ptr, ptr, ptr, ptr, ptr, ptr, ptr, ptr, ptr, ptr, ptr, ptr, %struct.dt_lua_state_t, ptr, double, ptr, i32, [47 x i32], i32, i32, ptr, ptr, %struct.dt_sys_resources_t, %struct.dt_backthumb_t, %struct.dt_gimp_t }
%struct.dt_codepath_t = type { i8, [3 x i8] }
%struct.dt_pthread_mutex_t = type { %union.pthread_mutex_t }
%union.pthread_mutex_t = type { %struct.__pthread_mutex_s }
%struct.__pthread_mutex_s = type { i32, i32, i32, i32, i32, i16, i16, %struct.__pthread_internal_list }
%struct.__pthread_internal_list = type { ptr, ptr }
%struct.dt_lua_state_t = type { i32 }
%struct.dt_sys_resources_t = type { i64, i64, ptr, ptr, i32 }
%struct.dt_backthumb_t = type { double, double, i32, i32, i32, i32 }
%struct.dt_gimp_t = type { i32, ptr, ptr, i32, i32 }
%struct._GList = type { ptr, ptr, ptr }
%struct.dt_iop_module_so_t = type { %struct.dt_action_t, ptr, ptr, ptr, ptr, ptr, ptr, ptr, ptr, ptr, ptr, ptr, ptr, ptr, ptr, ptr, ptr, ptr, ptr, ptr, ptr, ptr, ptr, ptr, ptr, ptr, ptr, ptr, ptr, ptr, ptr, ptr, ptr, ptr, ptr, ptr, ptr, ptr, ptr, ptr, ptr, ptr, ptr, ptr, ptr, ptr, ptr, ptr, ptr, ptr, ptr, ptr, ptr, ptr, ptr, ptr, ptr, [20 x i8], ptr, i32, ptr, i32, i32 }
%struct.dt_action_t = type { i32, ptr, ptr, ptr, ptr, ptr }
%struct.dt_lib_t = type { ptr, ptr, %struct.anon }
%struct.anon = type { %struct.anon.0, %struct.anon.1, %struct.anon.2, %struct.anon.3 }
%struct.anon.0 = type { ptr, ptr, ptr, ptr, ptr, i32, i32, i32, ptr, ptr, ptr, ptr, ptr }
%struct.anon.1 = type { ptr, ptr, i32 }
%struct.anon.2 = type { ptr }
%struct.anon.3 = type { i32 }
%struct.dt_lib_module_t = type { %struct.dt_action_t, ptr, ptr, ptr, ptr, ptr, ptr, ptr, ptr, ptr, ptr, ptr, ptr, ptr, ptr, ptr, ptr, ptr, ptr, ptr, ptr, ptr, ptr, ptr, ptr, ptr, ptr, ptr, ptr, ptr, ptr, [128 x i8], ptr, ptr, i32, ptr, ptr, ptr, i32 }

@darktable = external global %struct.darktable_t, align 8
@.str.43 = private unnamed_addr constant [115 x i8] c"generated/home/dtcxzyw/WorkSpace/Projects/compilers/llvm-opt-benchmark/bench/darktable/darktable/src/gui/presets.c\00", align 1
@stderr = external global ptr, align 8
@.str.45 = private unnamed_addr constant [53 x i8] c"sqlite3 error: %s:%d, function %s(), query \22%s\22: %s\0A\00", align 1
@.str.46 = private unnamed_addr constant [41 x i8] c"[sql] %s:%d, function %s(): prepare \22%s\22\00", align 1
@.str.48 = private unnamed_addr constant [41 x i8] c"sqlite3 error: %s:%d, function %s(): %s\0A\00", align 1
@.str.49 = private unnamed_addr constant [15 x i8] c"delete preset?\00", align 1
@.str.50 = private unnamed_addr constant [46 x i8] c"do you really want to delete the preset `%s'?\00", align 1
@__FUNCTION__.dt_gui_presets_confirm_and_delete = private unnamed_addr constant [34 x i8] c"dt_gui_presets_confirm_and_delete\00", align 1
@.str.51 = private unnamed_addr constant [59 x i8] c"DELETE FROM data.presets WHERE rowid=?1 AND writeprotect=0\00", align 1

; Function Attrs: inlinehint nounwind uwtable
define internal i32 @dt_iop_module_is(ptr noundef %0, ptr noundef %1) #4 {
  %3 = alloca ptr, align 8
  %4 = alloca ptr, align 8
  store ptr %0, ptr %3, align 8, !tbaa !68
  store ptr %1, ptr %4, align 8, !tbaa !11
  %5 = load ptr, ptr %3, align 8, !tbaa !68
  %6 = getelementptr inbounds nuw %struct.dt_iop_module_so_t, ptr %5, i32 0, i32 57
  %7 = getelementptr inbounds [20 x i8], ptr %6, i64 0, i64 0
  %8 = load ptr, ptr %4, align 8, !tbaa !11
  %9 = call i32 @g_strcmp0(ptr noundef %7, ptr noundef %8)
  %10 = icmp ne i32 %9, 0
  %11 = xor i1 %10, true
  %12 = zext i1 %11 to i32
  ret i32 %12
}

; Function Attrs: nounwind uwtable
define i32 @dt_gui_presets_confirm_and_delete(ptr noundef %0, ptr noundef %1, i32 noundef %2) #0 {
  %4 = alloca i32, align 4
  %5 = alloca ptr, align 8
  %6 = alloca ptr, align 8
  %7 = alloca i32, align 4
  %8 = alloca ptr, align 8
  %9 = alloca i32, align 4
  %10 = alloca ptr, align 8
  %11 = alloca ptr, align 8
  %12 = alloca ptr, align 8
  %13 = alloca ptr, align 8
  %14 = alloca i32, align 4
  %15 = alloca i32, align 4
  store ptr %0, ptr %5, align 8, !tbaa !11
  store ptr %1, ptr %6, align 8, !tbaa !11
  store i32 %2, ptr %7, align 4, !tbaa !13
  %16 = load ptr, ptr %6, align 8, !tbaa !11
  %17 = icmp ne ptr %16, null
  br i1 %17, label %19, label %18

18:                                               ; preds = %3
  store i32 0, ptr %4, align 4
  br label %135

19:                                               ; preds = %3
  %20 = call ptr @dcgettext(ptr noundef null, ptr noundef @.str.49, i32 noundef 5) #11
  %21 = call ptr @dcgettext(ptr noundef null, ptr noundef @.str.50, i32 noundef 5) #11
  %22 = load ptr, ptr %5, align 8, !tbaa !11
  %23 = call i32 (ptr, ptr, ...) @dt_gui_show_yes_no_dialog(ptr noundef %20, ptr noundef %21, ptr noundef %22)
  %24 = icmp ne i32 %23, 0
  br i1 %24, label %25, label %134

25:                                               ; preds = %19
  call void @llvm.lifetime.start.p0(i64 8, ptr %8) #11
  %26 = load ptr, ptr getelementptr inbounds nuw (%struct.darktable_t, ptr @darktable, i32 0, i32 3), align 8, !tbaa !64
  store ptr %26, ptr %8, align 8, !tbaa !65
  br label %27

27:                                               ; preds = %47, %25
  %28 = load ptr, ptr %8, align 8, !tbaa !65
  %29 = icmp ne ptr %28, null
  br i1 %29, label %31, label %30

30:                                               ; preds = %27
  store i32 2, ptr %9, align 4
  br label %51

31:                                               ; preds = %27
  call void @llvm.lifetime.start.p0(i64 8, ptr %10) #11
  %32 = load ptr, ptr %8, align 8, !tbaa !65
  %33 = getelementptr inbounds nuw %struct._GList, ptr %32, i32 0, i32 0
  %34 = load ptr, ptr %33, align 8, !tbaa !66
  store ptr %34, ptr %10, align 8, !tbaa !68
  %35 = load ptr, ptr %10, align 8, !tbaa !68
  %36 = load ptr, ptr %6, align 8, !tbaa !11
  %37 = call i32 @dt_iop_module_is(ptr noundef %35, ptr noundef %36)
  %38 = icmp ne i32 %37, 0
  br i1 %38, label %39, label %43

39:                                               ; preds = %31
  %40 = load ptr, ptr %10, align 8, !tbaa !68
  %41 = getelementptr inbounds nuw %struct.dt_iop_module_so_t, ptr %40, i32 0, i32 0
  %42 = load ptr, ptr %5, align 8, !tbaa !11
  call void @dt_action_rename_preset(ptr noundef %41, ptr noundef %42, ptr noundef null)
  store i32 2, ptr %9, align 4
  br label %44

43:                                               ; preds = %31
  store i32 0, ptr %9, align 4
  br label %44

44:                                               ; preds = %43, %39
  call void @llvm.lifetime.end.p0(i64 8, ptr %10) #11
  %45 = load i32, ptr %9, align 4
  switch i32 %45, label %51 [
    i32 0, label %46
  ]

46:                                               ; preds = %44
  br label %47

47:                                               ; preds = %46
  %48 = load ptr, ptr %8, align 8, !tbaa !65
  %49 = getelementptr inbounds nuw %struct._GList, ptr %48, i32 0, i32 1
  %50 = load ptr, ptr %49, align 8, !tbaa !70
  store ptr %50, ptr %8, align 8, !tbaa !65
  br label %27

51:                                               ; preds = %44, %30
  call void @llvm.lifetime.end.p0(i64 8, ptr %8) #11
  br label %52

52:                                               ; preds = %51
  call void @llvm.lifetime.start.p0(i64 8, ptr %11) #11
  %53 = load ptr, ptr getelementptr inbounds nuw (%struct.darktable_t, ptr @darktable, i32 0, i32 10), align 8, !tbaa !71
  %54 = getelementptr inbounds nuw %struct.dt_lib_t, ptr %53, i32 0, i32 0
  %55 = load ptr, ptr %54, align 8, !tbaa !72
  store ptr %55, ptr %11, align 8, !tbaa !65
  br label %56

56:                                               ; preds = %86, %52
  %57 = load ptr, ptr %11, align 8, !tbaa !65
  %58 = icmp ne ptr %57, null
  br i1 %58, label %60, label %59

59:                                               ; preds = %56
  store i32 5, ptr %9, align 4
  br label %88

60:                                               ; preds = %56
  call void @llvm.lifetime.start.p0(i64 8, ptr %12) #11
  %61 = load ptr, ptr %11, align 8, !tbaa !65
  %62 = getelementptr inbounds nuw %struct._GList, ptr %61, i32 0, i32 0
  %63 = load ptr, ptr %62, align 8, !tbaa !66
  store ptr %63, ptr %12, align 8, !tbaa !82
  %64 = load ptr, ptr %12, align 8, !tbaa !82
  %65 = getelementptr inbounds nuw %struct.dt_lib_module_t, ptr %64, i32 0, i32 31
  %66 = getelementptr inbounds [128 x i8], ptr %65, i64 0, i64 0
  %67 = load ptr, ptr %6, align 8, !tbaa !11
  %68 = call i32 @strcmp(ptr noundef %66, ptr noundef %67) #12
  %69 = icmp ne i32 %68, 0
  br i1 %69, label %74, label %70

70:                                               ; preds = %60
  %71 = load ptr, ptr %12, align 8, !tbaa !82
  %72 = getelementptr inbounds nuw %struct.dt_lib_module_t, ptr %71, i32 0, i32 0
  %73 = load ptr, ptr %5, align 8, !tbaa !11
  call void @dt_action_rename_preset(ptr noundef %72, ptr noundef %73, ptr noundef null)
  store i32 5, ptr %9, align 4
  br label %75

74:                                               ; preds = %60
  store i32 0, ptr %9, align 4
  br label %75

75:                                               ; preds = %74, %70
  call void @llvm.lifetime.end.p0(i64 8, ptr %12) #11
  %76 = load i32, ptr %9, align 4
  switch i32 %76, label %88 [
    i32 0, label %77
  ]

77:                                               ; preds = %75
  br label %78

78:                                               ; preds = %77
  %79 = load ptr, ptr %11, align 8, !tbaa !65
  %80 = icmp ne ptr %79, null
  br i1 %80, label %81, label %85

81:                                               ; preds = %78
  %82 = load ptr, ptr %11, align 8, !tbaa !65
  %83 = getelementptr inbounds nuw %struct._GList, ptr %82, i32 0, i32 1
  %84 = load ptr, ptr %83, align 8, !tbaa !70
  br label %86

85:                                               ; preds = %78
  br label %86

86:                                               ; preds = %85, %81
  %87 = phi ptr [ %84, %81 ], [ null, %85 ]
  store ptr %87, ptr %11, align 8, !tbaa !65
  br label %56

88:                                               ; preds = %75, %59
  call void @llvm.lifetime.end.p0(i64 8, ptr %11) #11
  br label %89

89:                                               ; preds = %88
  call void @llvm.lifetime.start.p0(i64 8, ptr %13) #11
  br label %90

90:                                               ; preds = %89
  br label %91

91:                                               ; preds = %90
  %92 = load i32, ptr getelementptr inbounds nuw (%struct.darktable_t, ptr @darktable, i32 0, i32 2), align 8, !tbaa !23
  %93 = and i32 256, %92
  %94 = icmp ne i32 %93, 0
  br i1 %94, label %95, label %101

95:                                               ; preds = %91
  %96 = load i32, ptr getelementptr inbounds nuw (%struct.darktable_t, ptr @darktable, i32 0, i32 2), align 8, !tbaa !23
  %97 = xor i32 %96, -1
  %98 = and i32 0, %97
  %99 = icmp ne i32 %98, 0
  br i1 %99, label %101, label %100

100:                                              ; preds = %95
  call void (ptr, ...) @dt_print_ext(ptr noundef @.str.46, ptr noundef @.str.43, i32 noundef 495, ptr noundef @__FUNCTION__.dt_gui_presets_confirm_and_delete, ptr noundef @.str.51)
  br label %101

101:                                              ; preds = %100, %95, %91
  br label %102

102:                                              ; preds = %101
  br label %103

103:                                              ; preds = %102
  call void @llvm.lifetime.start.p0(i64 4, ptr %14) #11
  %104 = load ptr, ptr getelementptr inbounds nuw (%struct.darktable_t, ptr @darktable, i32 0, i32 18), align 8, !tbaa !59
  %105 = call ptr @dt_database_get(ptr noundef %104)
  %106 = call i32 @sqlite3_prepare_v2(ptr noundef %105, ptr noundef @.str.51, i32 noundef -1, ptr noundef %13, ptr noundef null)
  store i32 %106, ptr %14, align 4, !tbaa !13
  %107 = load i32, ptr %14, align 4, !tbaa !13
  %108 = icmp ne i32 %107, 0
  br i1 %108, label %109, label %115

109:                                              ; preds = %103
  %110 = load ptr, ptr @stderr, align 8, !tbaa !60
  %111 = load ptr, ptr getelementptr inbounds nuw (%struct.darktable_t, ptr @darktable, i32 0, i32 18), align 8, !tbaa !59
  %112 = call ptr @dt_database_get(ptr noundef %111)
  %113 = call ptr @sqlite3_errmsg(ptr noundef %112)
  %114 = call i32 (ptr, ptr, ...) @fprintf(ptr noundef %110, ptr noundef @.str.45, ptr noundef @.str.43, i32 noundef 495, ptr noundef @__FUNCTION__.dt_gui_presets_confirm_and_delete, ptr noundef @.str.51, ptr noundef %113) #11
  br label %115

115:                                              ; preds = %109, %103
  call void @llvm.lifetime.end.p0(i64 4, ptr %14) #11
  br label %116

116:                                              ; preds = %115
  br label %117

117:                                              ; preds = %116
  call void @llvm.lifetime.start.p0(i64 4, ptr %15) #11
  %118 = load ptr, ptr %13, align 8, !tbaa !62
  %119 = load i32, ptr %7, align 4, !tbaa !13
  %120 = call i32 @sqlite3_bind_int(ptr noundef %118, i32 noundef 1, i32 noundef %119)
  store i32 %120, ptr %15, align 4, !tbaa !13
  %121 = load i32, ptr %15, align 4, !tbaa !13
  %122 = icmp ne i32 %121, 0
  br i1 %122, label %123, label %129

123:                                              ; preds = %117
  %124 = load ptr, ptr @stderr, align 8, !tbaa !60
  %125 = load ptr, ptr getelementptr inbounds nuw (%struct.darktable_t, ptr @darktable, i32 0, i32 18), align 8, !tbaa !59
  %126 = call ptr @dt_database_get(ptr noundef %125)
  %127 = call ptr @sqlite3_errmsg(ptr noundef %126)
  %128 = call i32 (ptr, ptr, ...) @fprintf(ptr noundef %124, ptr noundef @.str.48, ptr noundef @.str.43, i32 noundef 496, ptr noundef @__FUNCTION__.dt_gui_presets_confirm_and_delete, ptr noundef %127) #11
  br label %129

129:                                              ; preds = %123, %117
  call void @llvm.lifetime.end.p0(i64 4, ptr %15) #11
  %130 = load ptr, ptr %13, align 8, !tbaa !62
  %131 = call i32 @sqlite3_step(ptr noundef %130)
  %132 = load ptr, ptr %13, align 8, !tbaa !62
  %133 = call i32 @sqlite3_finalize(ptr noundef %132)
  store i32 1, ptr %4, align 4
  store i32 1, ptr %9, align 4
  call void @llvm.lifetime.end.p0(i64 8, ptr %13) #11
  br label %135

134:                                              ; preds = %19
  store i32 0, ptr %4, align 4
  br label %135

135:                                              ; preds = %134, %129, %18
  %136 = load i32, ptr %4, align 4
  ret i32 %136
}