; Function Attrs: nounwind uwtable
define range(i32 0, 2) i32 @dt_gui_presets_confirm_and_delete(ptr noundef %0, ptr noundef %1, i32 noundef %2) local_unnamed_addr #0 {
  %4 = alloca ptr, align 8
  %.not = icmp eq ptr %1, null
  br i1 %.not, label %49, label %5

5:                                                ; preds = %3
  %6 = tail call ptr @dcgettext(ptr noundef null, ptr noundef nonnull @.str.49, i32 noundef 5) #16
  %7 = tail call ptr @dcgettext(ptr noundef null, ptr noundef nonnull @.str.50, i32 noundef 5) #16
  %8 = tail call i32 (ptr, ptr, ...) @dt_gui_show_yes_no_dialog(ptr noundef %6, ptr noundef %7, ptr noundef %0) #16
  %.not27 = icmp eq i32 %8, 0
  br i1 %.not27, label %49, label %.preheader

.preheader:                                       ; preds = %5
  %.02339 = load ptr, ptr getelementptr inbounds nuw (i8, ptr @darktable, i64 16), align 8, !tbaa !58
  %.not2840 = icmp eq ptr %.02339, null
  br i1 %.not2840, label %.loopexit37, label %.critedge

9:                                                ; preds = %.critedge
  %10 = getelementptr inbounds nuw i8, ptr %.02341, i64 8
  %.023 = load ptr, ptr %10, align 8, !tbaa !58
  %.not28 = icmp eq ptr %.023, null
  br i1 %.not28, label %.loopexit37, label %.critedge

.critedge:                                        ; preds = %.preheader, %9
  %.02341 = phi ptr [ %.023, %9 ], [ %.02339, %.preheader ]
  %11 = load ptr, ptr %.02341, align 8, !tbaa !59
  %12 = getelementptr inbounds nuw i8, ptr %11, i64 496
  %13 = tail call i32 @g_strcmp0(ptr noundef nonnull %12, ptr noundef nonnull %1) #16
  %.not.i.not = icmp eq i32 %13, 0
  br i1 %.not.i.not, label %14, label %9

14:                                               ; preds = %.critedge
  tail call void @dt_action_rename_preset(ptr noundef nonnull %11, ptr noundef %0, ptr noundef null) #16
  br label %.loopexit37

.loopexit37:                                      ; preds = %9, %.preheader, %14
  %15 = load ptr, ptr getelementptr inbounds nuw (i8, ptr @darktable, i64 72), align 8, !tbaa !61
  %.02542 = load ptr, ptr %15, align 8, !tbaa !58
  %.not3043 = icmp eq ptr %.02542, null
  br i1 %.not3043, label %.loopexit, label %.critedge36

16:                                               ; preds = %.critedge36
  %17 = getelementptr inbounds nuw i8, ptr %.02544, i64 8
  %.025 = load ptr, ptr %17, align 8, !tbaa !58
  %.not30 = icmp eq ptr %.025, null
  br i1 %.not30, label %.loopexit, label %.critedge36

.critedge36:                                      ; preds = %.loopexit37, %16
  %.02544 = phi ptr [ %.025, %16 ], [ %.02542, %.loopexit37 ]
  %18 = load ptr, ptr %.02544, align 8, !tbaa !59
  %19 = getelementptr inbounds nuw i8, ptr %18, i64 288
  %20 = tail call i32 @strcmp(ptr noundef nonnull dereferenceable(1) %19, ptr noundef nonnull dereferenceable(1) %1) #18
  %.not31.not = icmp eq i32 %20, 0
  br i1 %.not31.not, label %21, label %16

21:                                               ; preds = %.critedge36
  tail call void @dt_action_rename_preset(ptr noundef nonnull %18, ptr noundef %0, ptr noundef null) #16
  br label %.loopexit

.loopexit:                                        ; preds = %16, %.loopexit37, %21
  call void @llvm.lifetime.start.p0(i64 8, ptr nonnull %4) #16
  %22 = load i32, ptr getelementptr inbounds nuw (i8, ptr @darktable, i64 8), align 8, !tbaa !14
  %23 = and i32 %22, 256
  %.not32 = icmp eq i32 %23, 0
  br i1 %.not32, label %25, label %24

24:                                               ; preds = %.loopexit
  tail call void (ptr, ...) @dt_print_ext(ptr noundef nonnull @.str.46, ptr noundef nonnull @.str.43, i32 noundef 495, ptr noundef nonnull @__FUNCTION__.dt_gui_presets_confirm_and_delete, ptr noundef nonnull @.str.51) #16
  br label %25

25:                                               ; preds = %24, %.loopexit
  %26 = load ptr, ptr getelementptr inbounds nuw (i8, ptr @darktable, i64 136), align 8, !tbaa !53
  %27 = tail call ptr @dt_database_get(ptr noundef %26) #16
  %28 = call i32 @sqlite3_prepare_v2(ptr noundef %27, ptr noundef nonnull @.str.51, i32 noundef -1, ptr noundef nonnull %4, ptr noundef null) #16
  %.not33 = icmp eq i32 %28, 0
  br i1 %.not33, label %35, label %29

29:                                               ; preds = %25
  %30 = load ptr, ptr @stderr, align 8, !tbaa !54
  %31 = load ptr, ptr getelementptr inbounds nuw (i8, ptr @darktable, i64 136), align 8, !tbaa !53
  %32 = call ptr @dt_database_get(ptr noundef %31) #16
  %33 = call ptr @sqlite3_errmsg(ptr noundef %32) #16
  %34 = call i32 (ptr, ptr, ...) @fprintf(ptr noundef %30, ptr noundef nonnull @.str.45, ptr noundef nonnull @.str.43, i32 noundef 495, ptr noundef nonnull @__FUNCTION__.dt_gui_presets_confirm_and_delete, ptr noundef nonnull @.str.51, ptr noundef %33) #17
  br label %35

35:                                               ; preds = %29, %25
  %36 = load ptr, ptr %4, align 8, !tbaa !56
  %37 = call i32 @sqlite3_bind_int(ptr noundef %36, i32 noundef 1, i32 noundef %2) #16
  %.not34 = icmp eq i32 %37, 0
  br i1 %.not34, label %44, label %38

38:                                               ; preds = %35
  %39 = load ptr, ptr @stderr, align 8, !tbaa !54
  %40 = load ptr, ptr getelementptr inbounds nuw (i8, ptr @darktable, i64 136), align 8, !tbaa !53
  %41 = call ptr @dt_database_get(ptr noundef %40) #16
  %42 = call ptr @sqlite3_errmsg(ptr noundef %41) #16
  %43 = call i32 (ptr, ptr, ...) @fprintf(ptr noundef %39, ptr noundef nonnull @.str.48, ptr noundef nonnull @.str.43, i32 noundef 496, ptr noundef nonnull @__FUNCTION__.dt_gui_presets_confirm_and_delete, ptr noundef %42) #17
  br label %44

44:                                               ; preds = %38, %35
  %45 = load ptr, ptr %4, align 8, !tbaa !56
  %46 = call i32 @sqlite3_step(ptr noundef %45) #16
  %47 = load ptr, ptr %4, align 8, !tbaa !56
  %48 = call i32 @sqlite3_finalize(ptr noundef %47) #16
  call void @llvm.lifetime.end.p0(i64 8, ptr nonnull %4) #16
  br label %49

49:                                               ; preds = %5, %3, %44
  %.0 = phi i32 [ 1, %44 ], [ 0, %3 ], [ 0, %5 ]
  ret i32 %.0
}